target datalayout = "e-m:e-p270:32:32-p271:32:32-p272:64:64-i64:64-i128:128-f80:128-n8:16:32:64-S128"
target triple = "x86_64-pc-linux-gnu"

%struct._zval_struct = type { %union._zend_value, %union.anon, %union.anon.2 }
%union._zend_value = type { i64 }
%union.anon = type { i32 }
%union.anon.2 = type { i32 }
%struct._zend_refcounted_h = type { i32, %union.anon.3 }
%union.anon.3 = type { i32 }
%struct._zend_object = type { %struct._zend_refcounted_h, i32, i32, ptr, ptr, ptr, [1 x %struct._zval_struct] }
%struct._spl_dllist_it = type { %struct._zend_object_iterator, ptr, i32, i32 }
%struct._zend_object_iterator = type { %struct._zend_object, %struct._zval_struct, ptr, i64 }

; Function Attrs: nounwind uwtable
define internal void @spl_dllist_it_get_current_key(ptr noundef %0, ptr noundef %1) #0 {
  %3 = alloca ptr, align 8
  %4 = alloca ptr, align 8
  %5 = alloca ptr, align 8
  %6 = alloca ptr, align 8
  store ptr %0, ptr %3, align 8, !tbaa !148
  store ptr %1, ptr %4, align 8, !tbaa !9
  call void @llvm.lifetime.start.p0(i64 8, ptr %5) #14
  %7 = load ptr, ptr %3, align 8, !tbaa !148
  store ptr %7, ptr %5, align 8, !tbaa !116
  br label %8

8:                                                ; preds = %2
  call void @llvm.lifetime.start.p0(i64 8, ptr %6) #14
  %9 = load ptr, ptr %4, align 8, !tbaa !9
  store ptr %9, ptr %6, align 8, !tbaa !9
  %10 = load ptr, ptr %5, align 8, !tbaa !116
  %11 = getelementptr inbounds nuw %struct._spl_dllist_it, ptr %10, i32 0, i32 2
  %12 = load i32, ptr %11, align 8, !tbaa !122
  %13 = sext i32 %12 to i64
  %14 = load ptr, ptr %6, align 8, !tbaa !9
  %15 = getelementptr inbounds nuw %struct._zval_struct, ptr %14, i32 0, i32 0
  store i64 %13, ptr %15, align 8, !tbaa !11
  %16 = load ptr, ptr %6, align 8, !tbaa !9
  %17 = getelementptr inbounds nuw %struct._zval_struct, ptr %16, i32 0, i32 1
  store i32 4, ptr %17, align 8, !tbaa !11
  call void @llvm.lifetime.end.p0(i64 8, ptr %6) #14
  br label %18

18:                                               ; preds = %8
  br label %19

19:                                               ; preds = %18
  call void @llvm.lifetime.end.p0(i64 8, ptr %5) #14
  ret void
}