; Function Attrs: mustprogress nofree norecurse nosync nounwind willreturn memory(argmem: readwrite) uwtable
define internal void @spl_dllist_it_get_current_key(ptr noundef readonly captures(none) %0, ptr noundef writeonly captures(none) initializes((0, 12)) %1) #11 {
  %3 = getelementptr inbounds nuw i8, ptr %0, i64 96
  %4 = load i32, ptr %3, align 8, !tbaa !117
  %5 = sext i32 %4 to i64
  store i64 %5, ptr %1, align 8, !tbaa !4
  %6 = getelementptr inbounds nuw i8, ptr %1, i64 8
  store i32 4, ptr %6, align 8, !tbaa !4
  ret void
}